(dp1
S'recceiver_plugin'
p2
ccopy_reg
_reconstructor
p3
(ctwisted.plugin
CachedDropin
p4
c__builtin__
object
p5
NtRp6
(dp7
S'moduleName'
p8
S'twisted.plugins.recceiver_plugin'
p9
sS'description'
p10
NsS'plugins'
p11
(lp12
g3
(ctwisted.plugin
CachedPlugin
p13
g5
NtRp14
(dp15
S'provided'
p16
(lp17
ctwisted.plugin
IPlugin
p18
acrecceiver.interfaces
IProcessorFactory
p19
asS'dropin'
p20
g6
sS'name'
p21
S'showfactory'
p22
sg10
Nsbag3
(g13
g5
NtRp23
(dp24
g16
(lp25
g18
ag19
asg20
g6
sg21
S'dbfactory'
p26
sg10
Nsbag3
(g13
g5
NtRp27
(dp28
g16
(lp29
g18
ag19
asg20
g6
sg21
S'cffactory'
p30
sg10
Nsbag3
(g13
g5
NtRp31
(dp32
g16
(lp33
ctwisted.application.service
IServiceMaker
p34
ag18
asg20
g6
sg21
S'serviceMaker'
p35
sg10
Nsbasbs.